SF:/home/travis/catkin_ws/src/gas/src/collect.cpp
FN:3,_ZN7Collect5spawnEPcdddi
FNDA:25,_ZN7Collect5spawnEPcdddi
FN:145,_ZN7Collect9remove_obEPc
FNDA:5,_ZN7Collect9remove_obEPc
DA:3,25
DA:6,25
DA:7,25
DA:8,50
DA:9,25
DA:12,50
DA:13,25
DA:15,25
DA:46,25
DA:47,19
DA:52,6
DA:53,3
DA:59,3
DA:65,25
DA:130,25
DA:131,25
DA:133,25
DA:134,25
DA:135,25
DA:136,25
DA:137,25
DA:140,25
DA:142,25
DA:143,25
DA:145,5
DA:148,5
DA:149,5
DA:150,5
DA:151,5
DA:154,5
DA:158,5
end_of_record
SF:/home/travis/catkin_ws/src/gas/src/collect.hpp
end_of_record
SF:/home/travis/catkin_ws/src/gas/test/collect_test.cpp
FN:15,_ZN32spawnr_test_gas_constructor_Test8TestBodyEv
FNDA:3,_ZN32spawnr_test_gas_constructor_Test8TestBodyEv
FN:15,_ZN32spawnr_test_gas_constructor_TestC2Ev
FNDA:3,_ZN32spawnr_test_gas_constructor_TestC2Ev
FN:21,_ZN32spawng_test_gas_constructor_Test8TestBodyEv
FNDA:3,_ZN32spawng_test_gas_constructor_Test8TestBodyEv
FN:21,_ZN32spawng_test_gas_constructor_TestC2Ev
FNDA:3,_ZN32spawng_test_gas_constructor_TestC2Ev
FN:27,_ZN32spawnb_test_gas_constructor_Test8TestBodyEv
FNDA:3,_ZN32spawnb_test_gas_constructor_Test8TestBodyEv
FN:27,_ZN32spawnb_test_gas_constructor_TestC2Ev
FNDA:3,_ZN32spawnb_test_gas_constructor_TestC2Ev
FN:33,_ZN32remove_test_gas_constructor_Test8TestBodyEv
FNDA:3,_ZN32remove_test_gas_constructor_Test8TestBodyEv
FN:33,_ZN32remove_test_gas_constructor_TestC2Ev
FNDA:3,_ZN32remove_test_gas_constructor_TestC2Ev
DA:15,3
DA:16,6
DA:17,3
DA:18,3
DA:19,3
DA:15,3
DA:21,3
DA:22,6
DA:23,3
DA:24,3
DA:25,3
DA:21,3
DA:27,3
DA:28,6
DA:29,3
DA:30,3
DA:31,3
DA:27,3
DA:33,3
DA:34,6
DA:35,3
DA:36,3
DA:37,3
DA:38,3
DA:33,3
end_of_record
SF:/home/travis/catkin_ws/src/gas/src/Traverse.cpp
FN:22,_ZN8TraverseC2EN3ros10NodeHandleE
FNDA:8,_ZN8TraverseC2EN3ros10NodeHandleE
FN:29,_ZN8Traverse9move_nextEv
FNDA:2,_ZN8Traverse9move_nextEv
FN:54,_ZN8Traverse7to_goalEdd
FNDA:2,_ZN8Traverse7to_goalEdd
FN:78,_ZN8Traverse10reach_billEv
FNDA:4,_ZN8Traverse10reach_billEv
DA:22,8
DA:23,8
DA:24,8
DA:25,8
DA:26,8
DA:27,8
DA:29,2
DA:30,6
DA:31,2
DA:32,0
DA:34,6
DA:35,4
DA:36,4
DA:37,4
DA:38,2
DA:39,2
DA:40,2
DA:41,2
DA:42,2
DA:43,2
DA:44,2
DA:45,2
DA:46,2
DA:47,2
DA:50,2
DA:52,2
DA:54,2
DA:55,6
DA:56,2
DA:57,0
DA:59,4
DA:60,2
DA:61,2
DA:63,2
DA:64,2
DA:65,2
DA:66,2
DA:68,2
DA:69,2
DA:70,2
DA:71,2
DA:72,4
DA:73,2
DA:74,2
DA:75,2
DA:76,2
DA:78,4
DA:79,12
DA:80,4
DA:81,0
DA:83,8
DA:84,4
DA:85,4
DA:87,4
DA:88,4
DA:89,4
DA:90,4
DA:92,4
DA:93,4
DA:94,4
DA:95,4
DA:96,8
DA:97,4
DA:99,4
DA:101,4
DA:102,4
end_of_record
SF:/home/travis/catkin_ws/src/gas/include/Traverse.h
end_of_record
SF:/home/travis/catkin_ws/src/gas/test/Traverse_test.cpp
FN:21,_ZN43TraverseTest1_testTraverse_constructor_Test8TestBodyEv
FNDA:2,_ZN43TraverseTest1_testTraverse_constructor_Test8TestBodyEv
FN:21,_ZN43TraverseTest1_testTraverse_constructor_TestC2Ev
FNDA:2,_ZN43TraverseTest1_testTraverse_constructor_TestC2Ev
FN:27,_ZN41TraverseTest2_testTraverse_move_next_Test8TestBodyEv
FNDA:2,_ZN41TraverseTest2_testTraverse_move_next_Test8TestBodyEv
FN:27,_ZN41TraverseTest2_testTraverse_move_next_TestC2Ev
FNDA:2,_ZN41TraverseTest2_testTraverse_move_next_TestC2Ev
FN:52,_ZN39TraverseTest3_testTraverse_to_goal_Test8TestBodyEv
FNDA:2,_ZN39TraverseTest3_testTraverse_to_goal_Test8TestBodyEv
FN:52,_ZN39TraverseTest3_testTraverse_to_goal_TestC2Ev
FNDA:2,_ZN39TraverseTest3_testTraverse_to_goal_TestC2Ev
FN:77,_ZN42TraverseTest4_testTraverse_reach_bill_Test8TestBodyEv
FNDA:2,_ZN42TraverseTest4_testTraverse_reach_bill_Test8TestBodyEv
FN:77,_ZN42TraverseTest4_testTraverse_reach_bill_TestC2Ev
FNDA:2,_ZN42TraverseTest4_testTraverse_reach_bill_TestC2Ev
DA:21,2
DA:22,6
DA:23,4
DA:24,2
DA:25,2
DA:21,2
DA:27,2
DA:39,6
DA:40,4
DA:41,2
DA:42,2
DA:43,2
DA:44,2
DA:47,2
DA:48,2
DA:49,2
DA:50,2
DA:27,2
DA:52,2
DA:64,6
DA:65,4
DA:66,2
DA:67,2
DA:68,2
DA:69,2
DA:72,2
DA:73,2
DA:74,2
DA:75,2
DA:52,2
DA:77,2
DA:89,6
DA:90,4
DA:91,2
DA:92,2
DA:93,2
DA:94,2
DA:97,2
DA:98,2
DA:99,2
DA:100,2
DA:77,2
end_of_record
SF:/home/travis/catkin_ws/src/gas/include/Traverse.h
end_of_record

SF:/home/travis/catkin_ws/src/gas/src/detection.cpp
FN:21,_ZN6DetectC2EN3ros10NodeHandleE
FNDA:1,_ZN6DetectC2EN3ros10NodeHandleE
FN:37,_ZN6Detect11drive_robotEff
FNDA:71,_ZN6Detect11drive_robotEff
FN:50,_ZN6Detect13LaserCallbackERKN5boost10shared_ptrIKN11sensor_msgs10LaserScan_ISaIvEEEEE
FNDA:35,_ZN6Detect13LaserCallbackERKN5boost10shared_ptrIKN11sensor_msgs10LaserScan_ISaIvEEEEE
FN:73,_ZN6Detect12odomCallbackERKN5boost10shared_ptrIKN8nav_msgs9Odometry_ISaIvEEEEE
FNDA:266,_ZN6Detect12odomCallbackERKN5boost10shared_ptrIKN8nav_msgs9Odometry_ISaIvEEEEE
FN:101,_ZN6Detect10spot_imageEN2cv3MatE
FNDA:71,_ZN6Detect10spot_imageEN2cv3MatE
FN:114,_ZN6Detect12robot_motionEN2cv3MatE
FNDA:71,_ZN6Detect12robot_motionEN2cv3MatE
FN:155,_ZN6Detect22process_image_callbackEN11sensor_msgs6Image_ISaIvEEE
FNDA:71,_ZN6Detect22process_image_callbackEN11sensor_msgs6Image_ISaIvEEE
FN:175,_ZN6Detect11startdetectEv
FNDA:1,_ZN6Detect11startdetectEv
DA:21,1
DA:22,1
DA:23,1
DA:24,1
DA:25,1
DA:26,1
DA:27,1
DA:28,1
DA:29,1
DA:30,1
DA:33,1
DA:34,1
DA:35,1
DA:37,71
DA:38,71
DA:39,71
DA:41,71
DA:42,71
DA:43,71
DA:44,71
DA:46,71
DA:47,71
DA:48,71
DA:50,35
DA:51,35
DA:52,35
DA:53,0
DA:54,0
DA:56,0
DA:57,0
DA:58,0
DA:60,0
DA:61,0
DA:62,0
DA:63,0
DA:67,0
DA:68,0
DA:71,35
DA:73,266
DA:74,266
DA:75,0
DA:76,0
DA:77,0
DA:79,0
DA:81,0
DA:82,0
DA:83,0
DA:85,0
DA:86,0
DA:88,0
DA:89,0
DA:91,0
DA:92,0
DA:93,0
DA:95,0
DA:96,0
DA:99,266
DA:101,71
DA:102,76751
DA:103,147302000
DA:104,147226000
DA:105,147226000
DA:106,0
DA:107,0
DA:108,0
DA:112,71
DA:114,71
DA:115,71
DA:116,70
DA:117,70
DA:118,70
DA:119,140
DA:122,1
DA:123,0
DA:124,0
DA:125,0
DA:126,0
DA:129,0
DA:130,0
DA:131,0
DA:135,0
DA:136,0
DA:137,0
DA:138,0
DA:143,0
DA:144,0
DA:149,1
DA:150,1
DA:151,1
DA:153,71
DA:155,71
DA:156,71
DA:157,71
DA:158,0
DA:160,71
DA:163,0
DA:164,0
DA:165,0
DA:168,71
DA:169,71
DA:170,71
DA:171,71
DA:175,1
DA:176,1
DA:177,1
DA:178,1
DA:179,1
DA:180,1
DA:181,1
DA:182,1
DA:183,11891700
DA:184,11891700
DA:186,1
end_of_record
SF:/home/travis/catkin_ws/src/gas/include/detection.hpp
end_of_record
